target datalayout = "e-m:e-p270:32:32-p271:32:32-p272:64:64-i64:64-i128:128-f80:128-n8:16:32:64-S128"
target triple = "x86_64-pc-linux-gnu"

%struct.H5O_link_t = type { i32, i8, i64, i32, ptr, %union.anon }
%union.anon = type { %struct.H5O_link_ud_t }
%struct.H5O_link_ud_t = type { ptr, i64 }
%struct.H5G_loc_t = type { ptr, ptr }
%struct.H5O_loc_t = type { ptr, i64, i8 }
%struct.H5O_link_hard_t = type { i64 }

@.str = private unnamed_addr constant [100 x i8] c"generated/home/dtcxzyw/WorkSpace/Projects/compilers/llvm-opt-benchmark/bench/hdf5/hdf5/src/H5Lint.c\00", align 1
@H5E_LINK_g = external global i64, align 8
@__func__.H5L_link = private unnamed_addr constant [9 x i8] c"H5L_link\00", align 1
@H5E_CANTINIT_g = external global i64, align 8
@.str.5 = private unnamed_addr constant [36 x i8] c"unable to create new link to object\00", align 1

; Function Attrs: nounwind uwtable
define i32 @H5L_link(ptr noundef %0, ptr noundef %1, ptr noundef %2, i64 noundef %3) #0 {
  %5 = alloca ptr, align 8
  %6 = alloca ptr, align 8
  %7 = alloca ptr, align 8
  %8 = alloca i64, align 8
  %9 = alloca %struct.H5O_link_t, align 8
  %10 = alloca i32, align 4
  %11 = alloca i8, align 1
  store ptr %0, ptr %5, align 8
  store ptr %1, ptr %6, align 8
  store ptr %2, ptr %7, align 8
  store i64 %3, ptr %8, align 8
  store i32 0, ptr %10, align 4
  store i8 0, ptr %11, align 1
  %12 = getelementptr inbounds %struct.H5O_link_t, ptr %9, i32 0, i32 0
  store i32 0, ptr %12, align 8
  %13 = load ptr, ptr %7, align 8
  %14 = getelementptr inbounds %struct.H5G_loc_t, ptr %13, i32 0, i32 0
  %15 = load ptr, ptr %14, align 8
  %16 = getelementptr inbounds %struct.H5O_loc_t, ptr %15, i32 0, i32 1
  %17 = load i64, ptr %16, align 8
  %18 = getelementptr inbounds %struct.H5O_link_t, ptr %9, i32 0, i32 5
  %19 = getelementptr inbounds %struct.H5O_link_hard_t, ptr %18, i32 0, i32 0
  store i64 %17, ptr %19, align 8
  %20 = load ptr, ptr %5, align 8
  %21 = load ptr, ptr %6, align 8
  %22 = load ptr, ptr %7, align 8
  %23 = getelementptr inbounds %struct.H5G_loc_t, ptr %22, i32 0, i32 1
  %24 = load ptr, ptr %23, align 8
  %25 = load ptr, ptr %7, align 8
  %26 = getelementptr inbounds %struct.H5G_loc_t, ptr %25, i32 0, i32 0
  %27 = load ptr, ptr %26, align 8
  %28 = getelementptr inbounds %struct.H5O_loc_t, ptr %27, i32 0, i32 0
  %29 = load ptr, ptr %28, align 8
  %30 = load i64, ptr %8, align 8
  %31 = call i32 @H5L__create_real(ptr noundef %20, ptr noundef %21, ptr noundef %24, ptr noundef %29, ptr noundef %9, ptr noundef null, i64 noundef %30)
  %32 = icmp slt i32 %31, 0
  br i1 %32, label %33, label %48

33:                                               ; preds = %4
  br label %34

34:                                               ; preds = %33
  br label %35

35:                                               ; preds = %34
  br label %36

36:                                               ; preds = %35
  %37 = load i64, ptr @H5E_LINK_g, align 8
  %38 = load i64, ptr @H5E_CANTINIT_g, align 8
  %39 = call i32 (ptr, ptr, i32, i64, i64, ptr, ...) @H5E_printf_stack(ptr noundef @.str, ptr noundef @__func__.H5L_link, i32 noundef 454, i64 noundef %37, i64 noundef %38, ptr noundef @.str.5)
  br label %40

40:                                               ; preds = %36
  store i8 1, ptr %11, align 1
  %41 = load i8, ptr %11, align 1
  %42 = trunc i8 %41 to i1
  %43 = zext i1 %42 to i8
  store i8 %43, ptr %11, align 1
  br label %44

44:                                               ; preds = %40
  br label %45

45:                                               ; preds = %44
  store i32 -1, ptr %10, align 4
  br label %49

46:                                               ; No predecessors!
  br label %47

47:                                               ; preds = %46
  br label %48

48:                                               ; preds = %47, %4
  br label %49

49:                                               ; preds = %48, %45
  %50 = load i32, ptr %10, align 4
  ret i32 %50
}