; Function Attrs: nounwind uwtable
define range(i32 -1, 1) i32 @H5L_link(ptr noundef %0, ptr noundef %1, ptr nocapture noundef readonly %2, i64 noundef %3) local_unnamed_addr #0 {
  %5 = alloca %struct.H5O_link_t, align 8
  store i32 0, ptr %5, align 8
  %6 = load ptr, ptr %2, align 8
  %7 = getelementptr inbounds i8, ptr %6, i64 8
  %8 = load i64, ptr %7, align 8
  %9 = getelementptr inbounds i8, ptr %5, i64 32
  store i64 %8, ptr %9, align 8
  %10 = getelementptr inbounds i8, ptr %2, i64 8
  %11 = load ptr, ptr %10, align 8
  %12 = load ptr, ptr %6, align 8
  %13 = call fastcc i32 @H5L__create_real(ptr noundef %0, ptr noundef %1, ptr noundef %11, ptr noundef %12, ptr noundef nonnull %5, ptr noundef null, i64 noundef %3)
  %14 = icmp slt i32 %13, 0
  br i1 %14, label %15, label %19

15:                                               ; preds = %4
  %16 = load i64, ptr @H5E_LINK_g, align 8
  %17 = load i64, ptr @H5E_CANTINIT_g, align 8
  %18 = call i32 (ptr, ptr, i32, i64, i64, ptr, ...) @H5E_printf_stack(ptr noundef nonnull @.str, ptr noundef nonnull @__func__.H5L_link, i32 noundef 454, i64 noundef %16, i64 noundef %17, ptr noundef nonnull @.str.5) #10
  br label %19

19:                                               ; preds = %4, %15
  %.0 = phi i32 [ -1, %15 ], [ 0, %4 ]
  ret i32 %.0
}